(lp0
(dp1
Vdomain
p2
V.taobao.com
p3
sVname
p4
Vv
p5
sVvalue
p6
V0
p7
sVpath
p8
V/
p9
sVhttpOnly
p10
I00
sVsecure
p11
I00
sa(dp12
Vdomain
p13
Vv.taobao.com
p14
sVname
p15
V_tb_token_
p16
sVvalue
p17
Vundefined
p18
sVpath
p19
V/v/content
p20
sVhttpOnly
p21
I00
sVsecure
p22
I00
sa(dp23
Vdomain
p24
Vv.taobao.com
p25
sVname
p26
VJSESSIONID
p27
sVvalue
p28
V64F50E0F32D4A804B80A26CB952EFE80
p29
sVpath
p30
g9
sVhttpOnly
p31
I01
sVsecure
p32
I00
sa(dp33
Vdomain
p34
V.taobao.com
p35
sVname
p36
Vcookie2
p37
sVvalue
p38
V1416f1f04c4ade1d952faf0d8e5f84cb
p39
sVpath
p40
g9
sVhttpOnly
p41
I01
sVsecure
p42
I00
sa(dp43
Vdomain
p44
V.taobao.com
p45
sVsecure
p46
I00
sVvalue
p47
VriuGFEN2vBICAXYZskVFQEft
p48
sVexpiry
p49
L2174174125L
sVpath
p50
g9
sVhttpOnly
p51
I00
sVname
p52
Vcna
p53
sa(dp54
Vdomain
p55
V.taobao.com
p56
sVname
p57
V_tb_token_
p58
sVvalue
p59
Vae881bee156d
p60
sVpath
p61
g9
sVhttpOnly
p62
I00
sVsecure
p63
I00
sa(dp64
Vdomain
p65
V.taobao.com
p66
sVsecure
p67
I00
sVvalue
p68
V13325e5d9aac5c983a4fb62514b3a291
p69
sVexpiry
p70
F1551230126.354455
sVpath
p71
g9
sVhttpOnly
p72
I00
sVname
p73
Vt
p74
sa(dp75
Vdomain
p76
V.taobao.com
p77
sVname
p78
Vuc1
p79
sVvalue
p80
Vcookie14=UoTYNc%2FnSWGk2g%3D%3D
p81
sVpath
p82
g9
sVhttpOnly
p83
I00
sVsecure
p84
I00
sa(dp85
Vdomain
p86
V.taobao.com
p87
sVsecure
p88
I00
sVvalue
p89
VBOnpwgRblueK9KpTxiNpIKLJ85Xvp935m2ByuIveZVAPUglk0wbtuNdAEL9BSnUg
p90
sVexpiry
p91
I1559006125
sVpath
p92
g9
sVhttpOnly
p93
I00
sVname
p94
Visg
p95
sa.