(lp0
(dp1
Vdomain
p2
V.taobao.com
p3
sVname
p4
Vv
p5
sVvalue
p6
V0
p7
sVpath
p8
V/
p9
sVhttpOnly
p10
I00
sVsecure
p11
I00
sa(dp12
Vdomain
p13
Vv.taobao.com
p14
sVname
p15
V_tb_token_
p16
sVvalue
p17
Vundefined
p18
sVpath
p19
V/v/content
p20
sVhttpOnly
p21
I00
sVsecure
p22
I00
sa(dp23
Vdomain
p24
Vv.taobao.com
p25
sVname
p26
VJSESSIONID
p27
sVvalue
p28
VA8125BE0934F47560201E8D2E3AD629E
p29
sVpath
p30
g9
sVhttpOnly
p31
I01
sVsecure
p32
I00
sa(dp33
Vdomain
p34
V.taobao.com
p35
sVname
p36
Vcookie2
p37
sVvalue
p38
V17e4a572fac446e577ee7df9bf42fd9b
p39
sVpath
p40
g9
sVhttpOnly
p41
I01
sVsecure
p42
I00
sa(dp43
Vdomain
p44
V.taobao.com
p45
sVsecure
p46
I00
sVvalue
p47
Vn1KVFE4YsHsCAXYZskU6Ra02
p48
sVexpiry
p49
L2175167134L
sVpath
p50
g9
sVhttpOnly
p51
I00
sVname
p52
Vcna
p53
sa(dp54
Vdomain
p55
V.taobao.com
p56
sVname
p57
Vuc1
p58
sVvalue
p59
Vcookie14=UoTYMhq6ptL1kA%3D%3D
p60
sVpath
p61
g9
sVhttpOnly
p62
I00
sVsecure
p63
I00
sa(dp64
Vdomain
p65
V.taobao.com
p66
sVname
p67
V_tb_token_
p68
sVvalue
p69
V306beee1b3733
p70
sVpath
p71
g9
sVhttpOnly
p72
I00
sVsecure
p73
I00
sa(dp74
Vdomain
p75
V.taobao.com
p76
sVsecure
p77
I00
sVvalue
p78
V4061cf77a296a57b3a83e3a9c09244c4
p79
sVexpiry
p80
F1552223135.113337
sVpath
p81
g9
sVhttpOnly
p82
I00
sVname
p83
Vt
p84
sa(dp85
Vdomain
p86
V.taobao.com
p87
sVsecure
p88
I00
sVvalue
p89
VBIqKZ9ZI4stU8G5nIK3gWkRM0HCAag7E3DXxvRTDNl1oxyqB_Ate5dA103q-N4Zt
p90
sVexpiry
p91
I1559999134
sVpath
p92
g9
sVhttpOnly
p93
I00
sVname
p94
Visg
p95
sa.