(lp0
(dp1
Vdomain
p2
V.taobao.com
p3
sVname
p4
Vv
p5
sVvalue
p6
V0
p7
sVpath
p8
V/
p9
sVhttpOnly
p10
I00
sVsecure
p11
I00
sa(dp12
Vdomain
p13
Vv.taobao.com
p14
sVname
p15
V_tb_token_
p16
sVvalue
p17
Vundefined
p18
sVpath
p19
V/v/content
p20
sVhttpOnly
p21
I00
sVsecure
p22
I00
sa(dp23
Vdomain
p24
Vv.taobao.com
p25
sVname
p26
VJSESSIONID
p27
sVvalue
p28
V06C9CA1576555758203FA1142B30594A
p29
sVpath
p30
g9
sVhttpOnly
p31
I01
sVsecure
p32
I00
sa(dp33
Vdomain
p34
V.taobao.com
p35
sVname
p36
Vcookie2
p37
sVvalue
p38
V1d75c9f99e078d13c82930a0e2f17521
p39
sVpath
p40
g9
sVhttpOnly
p41
I01
sVsecure
p42
I00
sa(dp43
Vdomain
p44
V.taobao.com
p45
sVsecure
p46
I00
sVvalue
p47
V2Ap0FDVTjjYCAXYZskVCy6bc
p48
sVexpiry
p49
L2172986070L
sVpath
p50
g9
sVhttpOnly
p51
I00
sVname
p52
Vcna
p53
sa(dp54
Vdomain
p55
V.taobao.com
p56
sVname
p57
V_tb_token_
p58
sVvalue
p59
Ve37b816b8b313
p60
sVpath
p61
g9
sVhttpOnly
p62
I00
sVsecure
p63
I00
sa(dp64
Vdomain
p65
V.taobao.com
p66
sVsecure
p67
I00
sVvalue
p68
V2f91959812f4430fa9031432e567ec6f
p69
sVexpiry
p70
F1550042074.079953
sVpath
p71
g9
sVhttpOnly
p72
I00
sVname
p73
Vt
p74
sa(dp75
Vdomain
p76
V.taobao.com
p77
sVsecure
p78
I00
sVvalue
p79
VBDw8TZiOSyIOEn9-2nXoKkuaBtruNeBfzDaeRBa9SCcK4dxrPkWw77JTxUA8qRi3
p80
sVexpiry
p81
I1557818071
sVpath
p82
g9
sVhttpOnly
p83
I00
sVname
p84
Visg
p85
sa(dp86
Vdomain
p87
V.taobao.com
p88
sVname
p89
Vuc1
p90
sVvalue
p91
Vcookie14=UoTYNO0orx4lmg%3D%3D
p92
sVpath
p93
g9
sVhttpOnly
p94
I00
sVsecure
p95
I00
sa.